; Function Attrs: mustprogress nounwind uwtable
define internal void @_ZN7rocksdb4test12_GLOBAL__N_118SpecialMemTableRepD0Ev(ptr noundef nonnull align 8 dereferenceable(32) initializes((0, 8)) %0) unnamed_addr #1 align 2 personality ptr @__gxx_personality_v0 {
  store ptr getelementptr inbounds nuw inrange(-16, 192) (i8, ptr @_ZTVN7rocksdb4test12_GLOBAL__N_118SpecialMemTableRepE, i64 16), ptr %0, align 8, !tbaa !25
  %2 = getelementptr inbounds nuw i8, ptr %0, i64 16
  %3 = load ptr, ptr %2, align 8, !tbaa !576
  %.not.i.i = icmp eq ptr %3, null
  br i1 %.not.i.i, label %_ZN7rocksdb4test12_GLOBAL__N_118SpecialMemTableRepD2Ev.exit, label %_ZNKSt14default_deleteIN7rocksdb11MemTableRepEEclEPS1_.exit.i.i

_ZNKSt14default_deleteIN7rocksdb11MemTableRepEEclEPS1_.exit.i.i: ; preds = %1
  %4 = load ptr, ptr %3, align 8, !tbaa !25
  %5 = getelementptr inbounds nuw i8, ptr %4, i64 144
  %6 = load ptr, ptr %5, align 8
  tail call void %6(ptr noundef nonnull align 8 dereferenceable(16) %3) #34
  br label %_ZN7rocksdb4test12_GLOBAL__N_118SpecialMemTableRepD2Ev.exit

_ZN7rocksdb4test12_GLOBAL__N_118SpecialMemTableRepD2Ev.exit: ; preds = %1, %_ZNKSt14default_deleteIN7rocksdb11MemTableRepEEclEPS1_.exit.i.i
  tail call void @_ZdlPvm(ptr noundef nonnull %0, i64 noundef 32) #33
  ret void
}